target datalayout = "e-m:e-p270:32:32-p271:32:32-p272:64:64-i64:64-i128:128-f80:128-n8:16:32:64-S128"
target triple = "x86_64-pc-linux-gnu"

%"class.cv::epnp" = type { double, double, double, double, %"class.std::vector", %"class.std::vector", %"class.std::vector", %"class.std::vector", i32, [4 x [3 x double]], [4 x [3 x double]], i32, ptr, ptr }
%"class.std::vector" = type { %"struct.std::_Vector_base" }
%"struct.std::_Vector_base" = type { %"struct.std::_Vector_base<double, std::allocator<double>>::_Vector_impl" }
%"struct.std::_Vector_base<double, std::allocator<double>>::_Vector_impl" = type { %"struct.std::_Vector_base<double, std::allocator<double>>::_Vector_impl_data" }
%"struct.std::_Vector_base<double, std::allocator<double>>::_Vector_impl_data" = type { ptr, ptr, ptr }
%struct.CvMat = type { i32, i32, ptr, i32, %union.anon, %union.anon.0, %union.anon.1 }
%union.anon = type { ptr }
%union.anon.0 = type { i32 }
%union.anon.1 = type { i32 }

; Function Attrs: mustprogress nounwind uwtable
define hidden void @_ZN2cv4epnp6fill_MEP5CvMatiPKddd(ptr noundef nonnull align 8 dereferenceable(352) %0, ptr noundef %1, i32 noundef %2, ptr noundef %3, double noundef %4, double noundef %5) #5 align 2 {
  %7 = alloca ptr, align 8
  %8 = alloca ptr, align 8
  %9 = alloca i32, align 4
  %10 = alloca ptr, align 8
  %11 = alloca double, align 8
  %12 = alloca double, align 8
  %13 = alloca ptr, align 8
  %14 = alloca ptr, align 8
  %15 = alloca i32, align 4
  store ptr %0, ptr %7, align 8, !tbaa !3
  store ptr %1, ptr %8, align 8, !tbaa !68
  store i32 %2, ptr %9, align 4, !tbaa !10
  store ptr %3, ptr %10, align 8, !tbaa !83
  store double %4, ptr %11, align 8, !tbaa !40
  store double %5, ptr %12, align 8, !tbaa !40
  %16 = load ptr, ptr %7, align 8
  call void @llvm.lifetime.start.p0(i64 8, ptr %13) #3
  %17 = load ptr, ptr %8, align 8, !tbaa !68
  %18 = getelementptr inbounds nuw %struct.CvMat, ptr %17, i32 0, i32 4
  %19 = load ptr, ptr %18, align 8, !tbaa !70
  %20 = load i32, ptr %9, align 4, !tbaa !10
  %21 = mul nsw i32 %20, 12
  %22 = sext i32 %21 to i64
  %23 = getelementptr inbounds double, ptr %19, i64 %22
  store ptr %23, ptr %13, align 8, !tbaa !83
  call void @llvm.lifetime.start.p0(i64 8, ptr %14) #3
  %24 = load ptr, ptr %13, align 8, !tbaa !83
  %25 = getelementptr inbounds double, ptr %24, i64 12
  store ptr %25, ptr %14, align 8, !tbaa !83
  call void @llvm.lifetime.start.p0(i64 4, ptr %15) #3
  store i32 0, ptr %15, align 4, !tbaa !10
  br label %26

26:                                               ; preds = %101, %6
  %27 = load i32, ptr %15, align 4, !tbaa !10
  %28 = icmp slt i32 %27, 4
  br i1 %28, label %30, label %29

29:                                               ; preds = %26
  call void @llvm.lifetime.end.p0(i64 4, ptr %15) #3
  br label %104

30:                                               ; preds = %26
  %31 = load ptr, ptr %10, align 8, !tbaa !83
  %32 = load i32, ptr %15, align 4, !tbaa !10
  %33 = sext i32 %32 to i64
  %34 = getelementptr inbounds double, ptr %31, i64 %33
  %35 = load double, ptr %34, align 8, !tbaa !40
  %36 = getelementptr inbounds nuw %"class.cv::epnp", ptr %16, i32 0, i32 2
  %37 = load double, ptr %36, align 8, !tbaa !38
  %38 = fmul double %35, %37
  %39 = load ptr, ptr %13, align 8, !tbaa !83
  %40 = load i32, ptr %15, align 4, !tbaa !10
  %41 = mul nsw i32 3, %40
  %42 = sext i32 %41 to i64
  %43 = getelementptr inbounds double, ptr %39, i64 %42
  store double %38, ptr %43, align 8, !tbaa !40
  %44 = load ptr, ptr %13, align 8, !tbaa !83
  %45 = load i32, ptr %15, align 4, !tbaa !10
  %46 = mul nsw i32 3, %45
  %47 = add nsw i32 %46, 1
  %48 = sext i32 %47 to i64
  %49 = getelementptr inbounds double, ptr %44, i64 %48
  store double 0.000000e+00, ptr %49, align 8, !tbaa !40
  %50 = load ptr, ptr %10, align 8, !tbaa !83
  %51 = load i32, ptr %15, align 4, !tbaa !10
  %52 = sext i32 %51 to i64
  %53 = getelementptr inbounds double, ptr %50, i64 %52
  %54 = load double, ptr %53, align 8, !tbaa !40
  %55 = getelementptr inbounds nuw %"class.cv::epnp", ptr %16, i32 0, i32 0
  %56 = load double, ptr %55, align 8, !tbaa !36
  %57 = load double, ptr %11, align 8, !tbaa !40
  %58 = fsub double %56, %57
  %59 = fmul double %54, %58
  %60 = load ptr, ptr %13, align 8, !tbaa !83
  %61 = load i32, ptr %15, align 4, !tbaa !10
  %62 = mul nsw i32 3, %61
  %63 = add nsw i32 %62, 2
  %64 = sext i32 %63 to i64
  %65 = getelementptr inbounds double, ptr %60, i64 %64
  store double %59, ptr %65, align 8, !tbaa !40
  %66 = load ptr, ptr %14, align 8, !tbaa !83
  %67 = load i32, ptr %15, align 4, !tbaa !10
  %68 = mul nsw i32 3, %67
  %69 = sext i32 %68 to i64
  %70 = getelementptr inbounds double, ptr %66, i64 %69
  store double 0.000000e+00, ptr %70, align 8, !tbaa !40
  %71 = load ptr, ptr %10, align 8, !tbaa !83
  %72 = load i32, ptr %15, align 4, !tbaa !10
  %73 = sext i32 %72 to i64
  %74 = getelementptr inbounds double, ptr %71, i64 %73
  %75 = load double, ptr %74, align 8, !tbaa !40
  %76 = getelementptr inbounds nuw %"class.cv::epnp", ptr %16, i32 0, i32 3
  %77 = load double, ptr %76, align 8, !tbaa !39
  %78 = fmul double %75, %77
  %79 = load ptr, ptr %14, align 8, !tbaa !83
  %80 = load i32, ptr %15, align 4, !tbaa !10
  %81 = mul nsw i32 3, %80
  %82 = add nsw i32 %81, 1
  %83 = sext i32 %82 to i64
  %84 = getelementptr inbounds double, ptr %79, i64 %83
  store double %78, ptr %84, align 8, !tbaa !40
  %85 = load ptr, ptr %10, align 8, !tbaa !83
  %86 = load i32, ptr %15, align 4, !tbaa !10
  %87 = sext i32 %86 to i64
  %88 = getelementptr inbounds double, ptr %85, i64 %87
  %89 = load double, ptr %88, align 8, !tbaa !40
  %90 = getelementptr inbounds nuw %"class.cv::epnp", ptr %16, i32 0, i32 1
  %91 = load double, ptr %90, align 8, !tbaa !37
  %92 = load double, ptr %12, align 8, !tbaa !40
  %93 = fsub double %91, %92
  %94 = fmul double %89, %93
  %95 = load ptr, ptr %14, align 8, !tbaa !83
  %96 = load i32, ptr %15, align 4, !tbaa !10
  %97 = mul nsw i32 3, %96
  %98 = add nsw i32 %97, 2
  %99 = sext i32 %98 to i64
  %100 = getelementptr inbounds double, ptr %95, i64 %99
  store double %94, ptr %100, align 8, !tbaa !40
  br label %101

101:                                              ; preds = %30
  %102 = load i32, ptr %15, align 4, !tbaa !10
  %103 = add nsw i32 %102, 1
  store i32 %103, ptr %15, align 4, !tbaa !10
  br label %26, !llvm.loop !86

104:                                              ; preds = %29
  call void @llvm.lifetime.end.p0(i64 8, ptr %14) #3
  call void @llvm.lifetime.end.p0(i64 8, ptr %13) #3
  ret void
}