; Function Attrs: mustprogress nofree norecurse nosync nounwind memory(write, argmem: readwrite, inaccessiblemem: none) uwtable
define hidden void @_ZN2cv4epnp6fill_MEP5CvMatiPKddd(ptr noundef nonnull readonly align 8 captures(none) dereferenceable(352) %0, ptr noundef readonly captures(none) %1, i32 noundef %2, ptr noundef readonly captures(none) %3, double noundef %4, double noundef %5) local_unnamed_addr #10 align 2 {
  %7 = getelementptr inbounds nuw i8, ptr %1, i64 24
  %8 = load ptr, ptr %7, align 8, !tbaa !69
  %9 = mul nsw i32 %2, 12
  %10 = sext i32 %9 to i64
  %11 = getelementptr inbounds double, ptr %8, i64 %10
  %12 = getelementptr inbounds nuw i8, ptr %11, i64 96
  %13 = getelementptr inbounds nuw i8, ptr %0, i64 16
  %14 = getelementptr inbounds nuw i8, ptr %0, i64 24
  %15 = getelementptr inbounds nuw i8, ptr %0, i64 8
  br label %17

16:                                               ; preds = %17
  ret void

17:                                               ; preds = %6, %17
  %indvars.iv = phi i64 [ 0, %6 ], [ %indvars.iv.next, %17 ]
  %18 = getelementptr inbounds nuw double, ptr %3, i64 %indvars.iv
  %19 = load double, ptr %18, align 8, !tbaa !32
  %20 = load double, ptr %13, align 8, !tbaa !31
  %21 = fmul double %19, %20
  %22 = mul nuw nsw i64 %indvars.iv, 3
  %23 = getelementptr inbounds nuw double, ptr %11, i64 %22
  store double %21, ptr %23, align 8, !tbaa !32
  %24 = add nuw nsw i64 %22, 1
  %25 = getelementptr inbounds nuw double, ptr %11, i64 %24
  store double 0.000000e+00, ptr %25, align 8, !tbaa !32
  %26 = load double, ptr %18, align 8, !tbaa !32
  %27 = load double, ptr %0, align 8, !tbaa !20
  %28 = fsub double %27, %4
  %29 = fmul double %26, %28
  %30 = add nuw nsw i64 %22, 2
  %31 = getelementptr inbounds nuw double, ptr %11, i64 %30
  store double %29, ptr %31, align 8, !tbaa !32
  %32 = getelementptr inbounds nuw double, ptr %12, i64 %22
  store double 0.000000e+00, ptr %32, align 8, !tbaa !32
  %33 = load double, ptr %18, align 8, !tbaa !32
  %34 = load double, ptr %14, align 8, !tbaa !33
  %35 = fmul double %33, %34
  %36 = getelementptr inbounds nuw double, ptr %12, i64 %24
  store double %35, ptr %36, align 8, !tbaa !32
  %37 = load double, ptr %18, align 8, !tbaa !32
  %38 = load double, ptr %15, align 8, !tbaa !30
  %39 = fsub double %38, %5
  %40 = fmul double %37, %39
  %41 = getelementptr inbounds nuw double, ptr %12, i64 %30
  store double %40, ptr %41, align 8, !tbaa !32
  %indvars.iv.next = add nuw nsw i64 %indvars.iv, 1
  %exitcond.not = icmp eq i64 %indvars.iv.next, 4
  br i1 %exitcond.not, label %16, label %17, !llvm.loop !94
}